; Function Attrs: nounwind uwtable
define internal range(i32 -30, 1) i32 @onig_builtin_monitor(ptr noundef readonly captures(none) %0, ptr readnone captures(none) %1) #4 {
  %3 = alloca [20 x i8], align 16
  call void @llvm.lifetime.start.p0(i64 20, ptr nonnull %3) #30
  %4 = load ptr, ptr @OutFp, align 8, !tbaa !209
  %5 = getelementptr inbounds nuw i8, ptr %0, i64 8
  %6 = load i32, ptr %5, align 8, !tbaa !52
  %7 = getelementptr inbounds nuw i8, ptr %0, i64 16
  %8 = load ptr, ptr %7, align 8, !tbaa !157
  %9 = tail call ptr @onig_reg_callout_list_at(ptr noundef %8, i32 noundef %6) #30
  %10 = icmp eq ptr %9, null
  br i1 %10, label %onig_get_arg_by_callout_args.exit.thread, label %11

11:                                               ; preds = %2
  %12 = getelementptr inbounds nuw i8, ptr %9, i64 4
  %13 = load i32, ptr %12, align 4, !tbaa !208
  %14 = icmp eq i32 %13, 1
  br i1 %14, label %15, label %onig_get_arg_by_callout_args.exit.thread

15:                                               ; preds = %11
  %16 = getelementptr inbounds nuw i8, ptr %9, i64 80
  %.sroa.0.0.copyload = load i32, ptr %16, align 8
  %17 = load i32, ptr %0, align 8, !tbaa !155
  %18 = icmp eq i32 %17, 1
  br i1 %18, label %19, label %21

19:                                               ; preds = %15
  %20 = icmp eq i32 %.sroa.0.0.copyload, 60
  br i1 %20, label %onig_get_arg_by_callout_args.exit.thread, label %22

21:                                               ; preds = %15
  switch i32 %.sroa.0.0.copyload, label %onig_get_arg_by_callout_args.exit.thread [
    i32 88, label %22
    i32 60, label %22
  ]

22:                                               ; preds = %21, %21, %19
  %23 = load i32, ptr %5, align 8, !tbaa !52
  %24 = getelementptr inbounds nuw i8, ptr %0, i64 40
  %25 = load ptr, ptr %24, align 8, !tbaa !160
  %26 = getelementptr inbounds nuw i8, ptr %0, i64 48
  %27 = load ptr, ptr %26, align 8, !tbaa !161
  %28 = getelementptr inbounds nuw i8, ptr %0, i64 56
  %29 = load ptr, ptr %28, align 8, !tbaa !162
  %30 = getelementptr inbounds nuw i8, ptr %0, i64 24
  %31 = load ptr, ptr %30, align 8, !tbaa !158
  %32 = getelementptr inbounds nuw i8, ptr %0, i64 32
  %33 = load ptr, ptr %32, align 8, !tbaa !159
  %34 = load ptr, ptr %7, align 8, !tbaa !157
  %35 = tail call ptr @onig_get_callout_tag_start(ptr noundef %34, i32 noundef %23) #30
  %36 = tail call ptr @onig_get_callout_tag_end(ptr noundef %34, i32 noundef %23) #30
  %37 = icmp eq ptr %35, null
  br i1 %37, label %38, label %40

38:                                               ; preds = %22
  %39 = call i32 (ptr, i64, ptr, ...) @snprintf(ptr noundef nonnull dereferenceable(1) %3, i64 noundef 20, ptr noundef nonnull @.str.2, i32 noundef %23) #30
  br label %49

40:                                               ; preds = %22
  %41 = ptrtoint ptr %36 to i64
  %42 = ptrtoint ptr %35 to i64
  %43 = sub i64 %41, %42
  %spec.store.select = tail call i64 @llvm.umin.i64(i64 %43, i64 19)
  %.not = icmp eq ptr %36, %35
  br i1 %.not, label %._crit_edge, label %.lr.ph.preheader

.lr.ph.preheader:                                 ; preds = %40
  %44 = trunc nuw nsw i64 %spec.store.select to i32
  %umax = tail call i32 @llvm.umax.i32(i32 %44, i32 1)
  %wide.trip.count = zext nneg i32 %umax to i64
  br label %.lr.ph

.lr.ph:                                           ; preds = %.lr.ph.preheader, %.lr.ph
  %indvars.iv = phi i64 [ 0, %.lr.ph.preheader ], [ %indvars.iv.next, %.lr.ph ]
  %45 = getelementptr inbounds nuw i8, ptr %35, i64 %indvars.iv
  %46 = load i8, ptr %45, align 1, !tbaa !56
  %47 = getelementptr inbounds nuw [20 x i8], ptr %3, i64 0, i64 %indvars.iv
  store i8 %46, ptr %47, align 1, !tbaa !56
  %indvars.iv.next = add nuw nsw i64 %indvars.iv, 1
  %exitcond.not = icmp eq i64 %indvars.iv.next, %wide.trip.count
  br i1 %exitcond.not, label %._crit_edge, label %.lr.ph, !llvm.loop !211

._crit_edge:                                      ; preds = %.lr.ph, %40
  %48 = getelementptr inbounds nuw [20 x i8], ptr %3, i64 0, i64 %spec.store.select
  store i8 0, ptr %48, align 1, !tbaa !56
  br label %49

49:                                               ; preds = %._crit_edge, %38
  %50 = select i1 %18, ptr @.str.4, ptr @.str.5
  %51 = ptrtoint ptr %29 to i64
  %52 = ptrtoint ptr %31 to i64
  %53 = sub i64 %51, %52
  %54 = trunc i64 %53 to i32
  %55 = ptrtoint ptr %25 to i64
  %56 = sub i64 %55, %52
  %57 = trunc i64 %56 to i32
  %58 = ptrtoint ptr %27 to i64
  %59 = sub i64 %58, %52
  %60 = trunc i64 %59 to i32
  %61 = ptrtoint ptr %33 to i64
  %62 = sub i64 %61, %52
  %63 = trunc i64 %62 to i32
  %64 = call i32 (ptr, ptr, ...) @fprintf(ptr noundef %4, ptr noundef nonnull @.str.3, ptr noundef nonnull %3, ptr noundef nonnull %50, i32 noundef %54, i32 noundef %57, i32 noundef %60, i32 noundef %63) #30
  %65 = call i32 @fflush(ptr noundef %4)
  br label %onig_get_arg_by_callout_args.exit.thread

onig_get_arg_by_callout_args.exit.thread:         ; preds = %11, %2, %21, %19, %49
  %.040 = phi i32 [ 0, %49 ], [ 0, %19 ], [ 0, %21 ], [ -30, %2 ], [ -30, %11 ]
  call void @llvm.lifetime.end.p0(i64 20, ptr nonnull %3) #30
  ret i32 %.040
}